; Function Attrs: mustprogress nounwind uwtable
define dso_local void @_ZN4Luau7CodeGen12NativeModuleD2Ev(ptr nocapture noundef nonnull readonly align 8 dereferenceable(72) %0) unnamed_addr #0 align 2 personality ptr @__gxx_personality_v0 {
  %2 = getelementptr inbounds i8, ptr %0, i64 48
  %3 = load ptr, ptr %2, align 8
  %4 = getelementptr inbounds i8, ptr %0, i64 56
  %5 = load ptr, ptr %4, align 8
  %.not4.i.i.i.i = icmp eq ptr %3, %5
  br i1 %.not4.i.i.i.i, label %_ZSt8_DestroyIPSt10unique_ptrIA_jN4Luau7CodeGen26NativeProtoExecDataDeleterEES5_EvT_S7_RSaIT0_E.exit.i, label %.lr.ph.i.i.i.i

.lr.ph.i.i.i.i:                                   ; preds = %1, %_ZSt8_DestroyISt10unique_ptrIA_jN4Luau7CodeGen26NativeProtoExecDataDeleterEEEvPT_.exit.i.i.i.i
  %.05.i.i.i.i = phi ptr [ %8, %_ZSt8_DestroyISt10unique_ptrIA_jN4Luau7CodeGen26NativeProtoExecDataDeleterEEEvPT_.exit.i.i.i.i ], [ %3, %1 ]
  %6 = load ptr, ptr %.05.i.i.i.i, align 8
  %.not.i.i.i.i.i.i = icmp eq ptr %6, null
  br i1 %.not.i.i.i.i.i.i, label %_ZSt8_DestroyISt10unique_ptrIA_jN4Luau7CodeGen26NativeProtoExecDataDeleterEEEvPT_.exit.i.i.i.i, label %7

7:                                                ; preds = %.lr.ph.i.i.i.i
  tail call void @_ZNK4Luau7CodeGen26NativeProtoExecDataDeleterclEPKj(ptr noundef nonnull align 1 dereferenceable(1) %.05.i.i.i.i, ptr noundef nonnull %6) #20
  br label %_ZSt8_DestroyISt10unique_ptrIA_jN4Luau7CodeGen26NativeProtoExecDataDeleterEEEvPT_.exit.i.i.i.i

_ZSt8_DestroyISt10unique_ptrIA_jN4Luau7CodeGen26NativeProtoExecDataDeleterEEEvPT_.exit.i.i.i.i: ; preds = %7, %.lr.ph.i.i.i.i
  store ptr null, ptr %.05.i.i.i.i, align 8
  %8 = getelementptr inbounds i8, ptr %.05.i.i.i.i, i64 8
  %.not.i.i.i.i = icmp eq ptr %8, %5
  br i1 %.not.i.i.i.i, label %_ZSt8_DestroyIPSt10unique_ptrIA_jN4Luau7CodeGen26NativeProtoExecDataDeleterEES5_EvT_S7_RSaIT0_E.exitthread-pre-split.i, label %.lr.ph.i.i.i.i, !llvm.loop !7

_ZSt8_DestroyIPSt10unique_ptrIA_jN4Luau7CodeGen26NativeProtoExecDataDeleterEES5_EvT_S7_RSaIT0_E.exitthread-pre-split.i: ; preds = %_ZSt8_DestroyISt10unique_ptrIA_jN4Luau7CodeGen26NativeProtoExecDataDeleterEEEvPT_.exit.i.i.i.i
  %.pr.i = load ptr, ptr %2, align 8
  br label %_ZSt8_DestroyIPSt10unique_ptrIA_jN4Luau7CodeGen26NativeProtoExecDataDeleterEES5_EvT_S7_RSaIT0_E.exit.i

_ZSt8_DestroyIPSt10unique_ptrIA_jN4Luau7CodeGen26NativeProtoExecDataDeleterEES5_EvT_S7_RSaIT0_E.exit.i: ; preds = %_ZSt8_DestroyIPSt10unique_ptrIA_jN4Luau7CodeGen26NativeProtoExecDataDeleterEES5_EvT_S7_RSaIT0_E.exitthread-pre-split.i, %1
  %9 = phi ptr [ %.pr.i, %_ZSt8_DestroyIPSt10unique_ptrIA_jN4Luau7CodeGen26NativeProtoExecDataDeleterEES5_EvT_S7_RSaIT0_E.exitthread-pre-split.i ], [ %3, %1 ]
  %.not.i.i.i = icmp eq ptr %9, null
  br i1 %.not.i.i.i, label %_ZNSt6vectorISt10unique_ptrIA_jN4Luau7CodeGen26NativeProtoExecDataDeleterEESaIS5_EED2Ev.exit, label %10

10:                                               ; preds = %_ZSt8_DestroyIPSt10unique_ptrIA_jN4Luau7CodeGen26NativeProtoExecDataDeleterEES5_EvT_S7_RSaIT0_E.exit.i
  %11 = getelementptr inbounds i8, ptr %0, i64 64
  %12 = load ptr, ptr %11, align 8
  %13 = ptrtoint ptr %12 to i64
  %14 = ptrtoint ptr %9 to i64
  %15 = sub i64 %13, %14
  tail call void @_ZdlPvm(ptr noundef nonnull %9, i64 noundef %15) #22
  br label %_ZNSt6vectorISt10unique_ptrIA_jN4Luau7CodeGen26NativeProtoExecDataDeleterEESaIS5_EED2Ev.exit

_ZNSt6vectorISt10unique_ptrIA_jN4Luau7CodeGen26NativeProtoExecDataDeleterEESaIS5_EED2Ev.exit: ; preds = %_ZSt8_DestroyIPSt10unique_ptrIA_jN4Luau7CodeGen26NativeProtoExecDataDeleterEES5_EvT_S7_RSaIT0_E.exit.i, %10
  ret void
}